; Function Attrs: mustprogress uwtable
define void @_ZN6Assimp8Exporter18SetProgressHandlerEPNS_15ProgressHandlerE(ptr noundef nonnull readonly align 8 captures(none) dereferenceable(8) %0, ptr noundef %1) local_unnamed_addr #1 align 2 {
  %3 = icmp eq ptr %1, null
  br i1 %3, label %4, label %7

4:                                                ; preds = %2
  %5 = tail call noundef ptr @_ZN6Assimp6Intern22AllocateFromAssimpHeapnwEm(i64 noundef 8)
  store ptr getelementptr inbounds nuw inrange(-16, 48) (i8, ptr @_ZTVN6Assimp22DefaultProgressHandlerE, i64 16), ptr %5, align 8
  %6 = load ptr, ptr %0, align 8
  br label %.sink.split

7:                                                ; preds = %2
  %8 = load ptr, ptr %0, align 8
  %9 = getelementptr inbounds nuw i8, ptr %8, i64 32
  %10 = load ptr, ptr %9, align 8
  %11 = icmp eq ptr %10, %1
  br i1 %11, label %21, label %12

12:                                               ; preds = %7
  %13 = icmp eq ptr %10, null
  br i1 %13, label %.sink.split, label %14

14:                                               ; preds = %12
  %15 = load ptr, ptr %10, align 8
  %16 = getelementptr inbounds nuw i8, ptr %15, i64 8
  %17 = load ptr, ptr %16, align 8
  tail call void %17(ptr noundef nonnull align 8 dereferenceable(8) %10) #31
  %.pre = load ptr, ptr %0, align 8
  br label %.sink.split

.sink.split:                                      ; preds = %12, %14, %4
  %.sink9 = phi ptr [ %6, %4 ], [ %.pre, %14 ], [ %8, %12 ]
  %.sink7 = phi ptr [ %5, %4 ], [ %1, %14 ], [ %1, %12 ]
  %.sink = phi i8 [ 1, %4 ], [ 0, %14 ], [ 0, %12 ]
  %18 = getelementptr inbounds nuw i8, ptr %.sink9, i64 32
  store ptr %.sink7, ptr %18, align 8
  %19 = load ptr, ptr %0, align 8
  %20 = getelementptr inbounds nuw i8, ptr %19, i64 40
  store i8 %.sink, ptr %20, align 8
  br label %21

21:                                               ; preds = %.sink.split, %7
  ret void
}